; Function Attrs: inlinehint nounwind uwtable
define internal fastcc void @Bac_ManWriteRange(ptr captures(none) %.0.val.48.val, i32 noundef %0, i32 noundef %1) unnamed_addr #4 {
.lr.ph.i:
  %2 = getelementptr inbounds nuw i8, ptr %.0.val.48.val, i64 4
  %.phi.trans.insert.i.i = getelementptr inbounds nuw i8, ptr %.0.val.48.val, i64 8
  %3 = load i32, ptr %2, align 4, !tbaa !41
  %4 = load i32, ptr %.0.val.48.val, align 8, !tbaa !45
  %5 = icmp eq i32 %3, %4
  br i1 %5, label %6, label %.Vec_StrGrow.exit10_crit_edge.i.i

.Vec_StrGrow.exit10_crit_edge.i.i:                ; preds = %.lr.ph.i
  %.pre.i.i = load ptr, ptr %.phi.trans.insert.i.i, align 8, !tbaa !42
  br label %Vec_StrPush.exit.i

6:                                                ; preds = %.lr.ph.i
  %7 = icmp slt i32 %3, 16
  br i1 %7, label %8, label %15

8:                                                ; preds = %6
  %9 = load ptr, ptr %.phi.trans.insert.i.i, align 8, !tbaa !42
  %.not9.i.i.i = icmp eq ptr %9, null
  br i1 %.not9.i.i.i, label %12, label %10

10:                                               ; preds = %8
  %11 = tail call dereferenceable_or_null(16) ptr @realloc(ptr noundef nonnull %9, i64 noundef 16) #12
  br label %Vec_StrGrow.exit.i.i

12:                                               ; preds = %8
  %13 = tail call noalias dereferenceable_or_null(16) ptr @malloc(i64 noundef 16) #13
  br label %Vec_StrGrow.exit.i.i

Vec_StrGrow.exit.i.i:                             ; preds = %12, %10
  %14 = phi ptr [ %11, %10 ], [ %13, %12 ]
  store ptr %14, ptr %.phi.trans.insert.i.i, align 8, !tbaa !42
  store i32 16, ptr %.0.val.48.val, align 8, !tbaa !45
  br label %Vec_StrPush.exit.i

15:                                               ; preds = %6
  %16 = shl nuw nsw i32 %3, 1
  %17 = load ptr, ptr %.phi.trans.insert.i.i, align 8, !tbaa !42
  %.not9.i9.i.i = icmp eq ptr %17, null
  %18 = zext nneg i32 %16 to i64
  br i1 %.not9.i9.i.i, label %21, label %19

19:                                               ; preds = %15
  %20 = tail call ptr @realloc(ptr noundef nonnull %17, i64 noundef %18) #12
  br label %23

21:                                               ; preds = %15
  %22 = tail call noalias ptr @malloc(i64 noundef %18) #13
  br label %23

23:                                               ; preds = %21, %19
  %24 = phi ptr [ %20, %19 ], [ %22, %21 ]
  store ptr %24, ptr %.phi.trans.insert.i.i, align 8, !tbaa !42
  store i32 %16, ptr %.0.val.48.val, align 8, !tbaa !45
  br label %Vec_StrPush.exit.i

Vec_StrPush.exit.i:                               ; preds = %23, %Vec_StrGrow.exit.i.i, %.Vec_StrGrow.exit10_crit_edge.i.i
  %25 = phi ptr [ %.pre.i.i, %.Vec_StrGrow.exit10_crit_edge.i.i ], [ %24, %23 ], [ %14, %Vec_StrGrow.exit.i.i ]
  %26 = load i32, ptr %2, align 4, !tbaa !41
  %27 = add nsw i32 %26, 1
  store i32 %27, ptr %2, align 4, !tbaa !41
  %28 = sext i32 %26 to i64
  %29 = getelementptr inbounds i8, ptr %25, i64 %28
  store i8 91, ptr %29, align 1, !tbaa !43
  %30 = icmp sgt i32 %1, -1
  br i1 %30, label %.lr.ph.i8, label %Vec_StrPrintStr.exit20

.lr.ph.i8:                                        ; preds = %Vec_StrPush.exit.i
  tail call fastcc void @Vec_StrPrintNum(ptr noundef nonnull %.0.val.48.val, i32 noundef %1)
  %31 = load i32, ptr %2, align 4, !tbaa !41
  %32 = load i32, ptr %.0.val.48.val, align 8, !tbaa !45
  %33 = icmp eq i32 %31, %32
  br i1 %33, label %34, label %.Vec_StrGrow.exit10_crit_edge.i.i12

.Vec_StrGrow.exit10_crit_edge.i.i12:              ; preds = %.lr.ph.i8
  %.pre.i.i13 = load ptr, ptr %.phi.trans.insert.i.i, align 8, !tbaa !42
  br label %Vec_StrPush.exit.i14

34:                                               ; preds = %.lr.ph.i8
  %35 = icmp slt i32 %31, 16
  br i1 %35, label %36, label %43

36:                                               ; preds = %34
  %37 = load ptr, ptr %.phi.trans.insert.i.i, align 8, !tbaa !42
  %.not9.i.i.i18 = icmp eq ptr %37, null
  br i1 %.not9.i.i.i18, label %40, label %38

38:                                               ; preds = %36
  %39 = tail call dereferenceable_or_null(16) ptr @realloc(ptr noundef nonnull %37, i64 noundef 16) #12
  br label %Vec_StrGrow.exit.i.i19

40:                                               ; preds = %36
  %41 = tail call noalias dereferenceable_or_null(16) ptr @malloc(i64 noundef 16) #13
  br label %Vec_StrGrow.exit.i.i19

Vec_StrGrow.exit.i.i19:                           ; preds = %40, %38
  %42 = phi ptr [ %39, %38 ], [ %41, %40 ]
  store ptr %42, ptr %.phi.trans.insert.i.i, align 8, !tbaa !42
  store i32 16, ptr %.0.val.48.val, align 8, !tbaa !45
  br label %Vec_StrPush.exit.i14

43:                                               ; preds = %34
  %44 = shl nuw nsw i32 %31, 1
  %45 = load ptr, ptr %.phi.trans.insert.i.i, align 8, !tbaa !42
  %.not9.i9.i.i17 = icmp eq ptr %45, null
  %46 = zext nneg i32 %44 to i64
  br i1 %.not9.i9.i.i17, label %49, label %47

47:                                               ; preds = %43
  %48 = tail call ptr @realloc(ptr noundef nonnull %45, i64 noundef %46) #12
  br label %51

49:                                               ; preds = %43
  %50 = tail call noalias ptr @malloc(i64 noundef %46) #13
  br label %51

51:                                               ; preds = %49, %47
  %52 = phi ptr [ %48, %47 ], [ %50, %49 ]
  store ptr %52, ptr %.phi.trans.insert.i.i, align 8, !tbaa !42
  store i32 %44, ptr %.0.val.48.val, align 8, !tbaa !45
  br label %Vec_StrPush.exit.i14

Vec_StrPush.exit.i14:                             ; preds = %51, %Vec_StrGrow.exit.i.i19, %.Vec_StrGrow.exit10_crit_edge.i.i12
  %53 = phi ptr [ %.pre.i.i13, %.Vec_StrGrow.exit10_crit_edge.i.i12 ], [ %52, %51 ], [ %42, %Vec_StrGrow.exit.i.i19 ]
  %54 = load i32, ptr %2, align 4, !tbaa !41
  %55 = add nsw i32 %54, 1
  store i32 %55, ptr %2, align 4, !tbaa !41
  %56 = sext i32 %54 to i64
  %57 = getelementptr inbounds i8, ptr %53, i64 %56
  store i8 58, ptr %57, align 1, !tbaa !43
  br label %Vec_StrPrintStr.exit20

Vec_StrPrintStr.exit20:                           ; preds = %Vec_StrPush.exit.i14, %Vec_StrPush.exit.i
  tail call fastcc void @Vec_StrPrintNum(ptr noundef nonnull %.0.val.48.val, i32 noundef %0)
  %58 = load i32, ptr %2, align 4, !tbaa !41
  %59 = load i32, ptr %.0.val.48.val, align 8, !tbaa !45
  %60 = icmp eq i32 %58, %59
  br i1 %60, label %61, label %.Vec_StrGrow.exit10_crit_edge.i.i25

.Vec_StrGrow.exit10_crit_edge.i.i25:              ; preds = %Vec_StrPrintStr.exit20
  %.pre.i.i26 = load ptr, ptr %.phi.trans.insert.i.i, align 8, !tbaa !42
  br label %Vec_StrPush.exit.i27

61:                                               ; preds = %Vec_StrPrintStr.exit20
  %62 = icmp slt i32 %58, 16
  br i1 %62, label %63, label %70

63:                                               ; preds = %61
  %64 = load ptr, ptr %.phi.trans.insert.i.i, align 8, !tbaa !42
  %.not9.i.i.i31 = icmp eq ptr %64, null
  br i1 %.not9.i.i.i31, label %67, label %65

65:                                               ; preds = %63
  %66 = tail call dereferenceable_or_null(16) ptr @realloc(ptr noundef nonnull %64, i64 noundef 16) #12
  br label %Vec_StrGrow.exit.i.i32

67:                                               ; preds = %63
  %68 = tail call noalias dereferenceable_or_null(16) ptr @malloc(i64 noundef 16) #13
  br label %Vec_StrGrow.exit.i.i32

Vec_StrGrow.exit.i.i32:                           ; preds = %67, %65
  %69 = phi ptr [ %66, %65 ], [ %68, %67 ]
  store ptr %69, ptr %.phi.trans.insert.i.i, align 8, !tbaa !42
  store i32 16, ptr %.0.val.48.val, align 8, !tbaa !45
  br label %Vec_StrPush.exit.i27

70:                                               ; preds = %61
  %71 = shl nuw nsw i32 %58, 1
  %72 = load ptr, ptr %.phi.trans.insert.i.i, align 8, !tbaa !42
  %.not9.i9.i.i30 = icmp eq ptr %72, null
  %73 = zext nneg i32 %71 to i64
  br i1 %.not9.i9.i.i30, label %76, label %74

74:                                               ; preds = %70
  %75 = tail call ptr @realloc(ptr noundef nonnull %72, i64 noundef %73) #12
  br label %78

76:                                               ; preds = %70
  %77 = tail call noalias ptr @malloc(i64 noundef %73) #13
  br label %78

78:                                               ; preds = %76, %74
  %79 = phi ptr [ %75, %74 ], [ %77, %76 ]
  store ptr %79, ptr %.phi.trans.insert.i.i, align 8, !tbaa !42
  store i32 %71, ptr %.0.val.48.val, align 8, !tbaa !45
  br label %Vec_StrPush.exit.i27

Vec_StrPush.exit.i27:                             ; preds = %78, %Vec_StrGrow.exit.i.i32, %.Vec_StrGrow.exit10_crit_edge.i.i25
  %80 = phi ptr [ %.pre.i.i26, %.Vec_StrGrow.exit10_crit_edge.i.i25 ], [ %79, %78 ], [ %69, %Vec_StrGrow.exit.i.i32 ]
  %81 = load i32, ptr %2, align 4, !tbaa !41
  %82 = add nsw i32 %81, 1
  store i32 %82, ptr %2, align 4, !tbaa !41
  %83 = sext i32 %81 to i64
  %84 = getelementptr inbounds i8, ptr %80, i64 %83
  store i8 93, ptr %84, align 1, !tbaa !43
  ret void
}